(lp0
(dp1
S'A'
p2
I5
sS'GAM'
p3
F0.95
sS'B'
p4
I5
sS'E'
p5
I6
sS'DELTA'
p6
F0.1
sS'SIG'
p7
NsS'WMAT'
p8
NsS'L'
p9
I10
sS'LMAT'
p10
Nsa(dp11
g2
I5
sg3
F0.95
sg4
I5
sg5
I7
sg6
F0.1
sg7
Nsg8
Nsg9
I10
sg10
Nsa(dp12
g2
I5
sg3
F0.95
sg4
I5
sg5
I8
sg6
F0.1
sg7
Nsg8
Nsg9
I10
sg10
Nsa(dp13
g2
I5
sg3
F0.95
sg4
I5
sg5
I9
sg6
F0.1
sg7
Nsg8
Nsg9
I10
sg10
Nsa(dp14
g2
I5
sg3
F0.95
sg4
I5
sg5
I10
sg6
F0.1
sg7
Nsg8
Nsg9
I10
sg10
Nsa(dp15
g2
I5
sg3
F0.95
sg4
I5
sg5
I11
sg6
F0.1
sg7
Nsg8
Nsg9
I10
sg10
Nsa(dp16
g2
I5
sg3
F0.95
sg4
I5
sg5
I12
sg6
F0.1
sg7
Nsg8
Nsg9
I10
sg10
Nsa(dp17
g2
I5
sg3
F0.95
sg4
I5
sg5
I13
sg6
F0.1
sg7
Nsg8
Nsg9
I10
sg10
Nsa(dp18
g2
I5
sg3
F0.95
sg4
I5
sg5
I14
sg6
F0.1
sg7
Nsg8
Nsg9
I10
sg10
Nsa(dp19
g2
I5
sg3
F0.95
sg4
I5
sg5
I15
sg6
F0.1
sg7
Nsg8
Nsg9
I10
sg10
Nsa.