(lp0
(dp1
S'A'
p2
I5
sS'B'
p3
I5
sS'E'
p4
I6
sS'L'
p5
I10
sS'SIG'
p6
NsS'WMAT'
p7
NsS'A_inf'
p8
I6
sS'GAM'
p9
F0.8
sS'DELTA'
p10
F0.01
sS'B_inf'
p11
I6
sS'LMAT'
p12
Nsa(dp13
g2
I5
sg3
I5
sg4
I7
sg5
I10
sg6
Nsg7
Nsg8
I6
sg9
F0.8
sg10
F0.01
sg11
I6
sg12
Nsa(dp14
g2
I5
sg3
I5
sg4
I8
sg5
I10
sg6
Nsg7
Nsg8
I6
sg9
F0.8
sg10
F0.01
sg11
I6
sg12
Nsa(dp15
g2
I5
sg3
I5
sg4
I9
sg5
I10
sg6
Nsg7
Nsg8
I6
sg9
F0.8
sg10
F0.01
sg11
I6
sg12
Nsa(dp16
g2
I5
sg3
I5
sg4
I10
sg5
I10
sg6
Nsg7
Nsg8
I6
sg9
F0.8
sg10
F0.01
sg11
I6
sg12
Nsa(dp17
g2
I5
sg3
I5
sg4
I11
sg5
I10
sg6
Nsg7
Nsg8
I6
sg9
F0.8
sg10
F0.01
sg11
I6
sg12
Nsa(dp18
g2
I5
sg3
I5
sg4
I12
sg5
I10
sg6
Nsg7
Nsg8
I6
sg9
F0.8
sg10
F0.01
sg11
I6
sg12
Nsa(dp19
g2
I5
sg3
I5
sg4
I13
sg5
I10
sg6
Nsg7
Nsg8
I6
sg9
F0.8
sg10
F0.01
sg11
I6
sg12
Nsa(dp20
g2
I5
sg3
I5
sg4
I14
sg5
I10
sg6
Nsg7
Nsg8
I6
sg9
F0.8
sg10
F0.01
sg11
I6
sg12
Nsa(dp21
g2
I5
sg3
I5
sg4
I15
sg5
I10
sg6
Nsg7
Nsg8
I6
sg9
F0.8
sg10
F0.01
sg11
I6
sg12
Nsa.