(lp0
(dp1
S'A'
p2
I5
sS'B'
p3
I5
sS'E'
p4
I10
sS'L'
p5
I10
sS'SIG'
p6
NsS'WMAT'
p7
NsS'A_inf'
p8
I6
sS'GAM'
p9
F0.8
sS'DELTA'
p10
F0.1
sS'B_inf'
p11
I6
sS'LMAT'
p12
(lp13
(lp14
F0.05555555555555555
aF0.5
aF0.05555555555555555
aF0.05555555555555555
aF0.05555555555555555
aF0.05555555555555555
aF0.05555555555555555
aF0.05555555555555555
aF0.05555555555555555
aF0.05555555555555555
aF0.05555555555555555
aag14
ag14
ag14
ag14
ag14
ag14
ag14
ag14
ag14
ag14
asa(dp15
g2
I5
sg3
I5
sg4
I10
sg5
I10
sg6
Nsg7
Nsg8
I6
sg9
F0.8
sg10
F0.1
sg11
I6
sg12
(lp16
(lp17
F0.05555555555555555
aF0.05555555555555555
aF0.5
aF0.05555555555555555
aF0.05555555555555555
aF0.05555555555555555
aF0.05555555555555555
aF0.05555555555555555
aF0.05555555555555555
aF0.05555555555555555
aF0.05555555555555555
aag17
ag17
ag17
ag17
ag17
ag17
ag17
ag17
ag17
ag17
asa(dp18
g2
I5
sg3
I5
sg4
I10
sg5
I10
sg6
Nsg7
Nsg8
I6
sg9
F0.8
sg10
F0.1
sg11
I6
sg12
(lp19
(lp20
F0.05555555555555555
aF0.05555555555555555
aF0.05555555555555555
aF0.5
aF0.05555555555555555
aF0.05555555555555555
aF0.05555555555555555
aF0.05555555555555555
aF0.05555555555555555
aF0.05555555555555555
aF0.05555555555555555
aag20
ag20
ag20
ag20
ag20
ag20
ag20
ag20
ag20
ag20
asa(dp21
g2
I5
sg3
I5
sg4
I10
sg5
I10
sg6
Nsg7
Nsg8
I6
sg9
F0.8
sg10
F0.1
sg11
I6
sg12
(lp22
(lp23
F0.05555555555555555
aF0.05555555555555555
aF0.05555555555555555
aF0.05555555555555555
aF0.5
aF0.05555555555555555
aF0.05555555555555555
aF0.05555555555555555
aF0.05555555555555555
aF0.05555555555555555
aF0.05555555555555555
aag23
ag23
ag23
ag23
ag23
ag23
ag23
ag23
ag23
ag23
asa(dp24
g2
I5
sg3
I5
sg4
I10
sg5
I10
sg6
Nsg7
Nsg8
I6
sg9
F0.8
sg10
F0.1
sg11
I6
sg12
(lp25
(lp26
F0.05555555555555555
aF0.05555555555555555
aF0.05555555555555555
aF0.05555555555555555
aF0.05555555555555555
aF0.5
aF0.05555555555555555
aF0.05555555555555555
aF0.05555555555555555
aF0.05555555555555555
aF0.05555555555555555
aag26
ag26
ag26
ag26
ag26
ag26
ag26
ag26
ag26
ag26
asa(dp27
g2
I5
sg3
I5
sg4
I10
sg5
I10
sg6
Nsg7
Nsg8
I6
sg9
F0.8
sg10
F0.1
sg11
I6
sg12
(lp28
(lp29
F0.05555555555555555
aF0.05555555555555555
aF0.05555555555555555
aF0.05555555555555555
aF0.05555555555555555
aF0.05555555555555555
aF0.5
aF0.05555555555555555
aF0.05555555555555555
aF0.05555555555555555
aF0.05555555555555555
aag29
ag29
ag29
ag29
ag29
ag29
ag29
ag29
ag29
ag29
asa(dp30
g2
I5
sg3
I5
sg4
I10
sg5
I10
sg6
Nsg7
Nsg8
I6
sg9
F0.8
sg10
F0.1
sg11
I6
sg12
(lp31
(lp32
F0.05555555555555555
aF0.05555555555555555
aF0.05555555555555555
aF0.05555555555555555
aF0.05555555555555555
aF0.05555555555555555
aF0.05555555555555555
aF0.5
aF0.05555555555555555
aF0.05555555555555555
aF0.05555555555555555
aag32
ag32
ag32
ag32
ag32
ag32
ag32
ag32
ag32
ag32
asa(dp33
g2
I5
sg3
I5
sg4
I10
sg5
I10
sg6
Nsg7
Nsg8
I6
sg9
F0.8
sg10
F0.1
sg11
I6
sg12
(lp34
(lp35
F0.05555555555555555
aF0.05555555555555555
aF0.05555555555555555
aF0.05555555555555555
aF0.05555555555555555
aF0.05555555555555555
aF0.05555555555555555
aF0.05555555555555555
aF0.5
aF0.05555555555555555
aF0.05555555555555555
aag35
ag35
ag35
ag35
ag35
ag35
ag35
ag35
ag35
ag35
asa(dp36
g2
I5
sg3
I5
sg4
I10
sg5
I10
sg6
Nsg7
Nsg8
I6
sg9
F0.8
sg10
F0.1
sg11
I6
sg12
(lp37
(lp38
F0.05555555555555555
aF0.05555555555555555
aF0.05555555555555555
aF0.05555555555555555
aF0.05555555555555555
aF0.05555555555555555
aF0.05555555555555555
aF0.05555555555555555
aF0.05555555555555555
aF0.5
aF0.05555555555555555
aag38
ag38
ag38
ag38
ag38
ag38
ag38
ag38
ag38
ag38
asa(dp39
g2
I5
sg3
I5
sg4
I10
sg5
I10
sg6
Nsg7
Nsg8
I6
sg9
F0.8
sg10
F0.1
sg11
I6
sg12
(lp40
(lp41
F0.05555555555555555
aF0.05555555555555555
aF0.05555555555555555
aF0.05555555555555555
aF0.05555555555555555
aF0.05555555555555555
aF0.05555555555555555
aF0.05555555555555555
aF0.05555555555555555
aF0.05555555555555555
aF0.5
aag41
ag41
ag41
ag41
ag41
ag41
ag41
ag41
ag41
ag41
asa.