(lp0
(dp1
S'A'
p2
I5
sS'GAM'
p3
F0.9
sS'B'
p4
I5
sS'E'
p5
I10
sS'DELTA'
p6
F0.1
sS'SIG'
p7
NsS'WMAT'
p8
NsS'L'
p9
I10
sS'LMAT'
p10
(lp11
(lp12
F0.8
aF0.019999999999999997
aF0.019999999999999997
aF0.019999999999999997
aF0.019999999999999997
aF0.019999999999999997
aF0.019999999999999997
aF0.019999999999999997
aF0.019999999999999997
aF0.019999999999999997
aF0.019999999999999997
aag12
ag12
ag12
ag12
ag12
ag12
ag12
ag12
ag12
ag12
asa(dp13
g2
I5
sg3
F0.9
sg4
I5
sg5
I10
sg6
F0.1
sg7
Nsg8
Nsg9
I10
sg10
(lp14
(lp15
F0.019999999999999997
aF0.8
aF0.019999999999999997
aF0.019999999999999997
aF0.019999999999999997
aF0.019999999999999997
aF0.019999999999999997
aF0.019999999999999997
aF0.019999999999999997
aF0.019999999999999997
aF0.019999999999999997
aag15
ag15
ag15
ag15
ag15
ag15
ag15
ag15
ag15
ag15
asa(dp16
g2
I5
sg3
F0.9
sg4
I5
sg5
I10
sg6
F0.1
sg7
Nsg8
Nsg9
I10
sg10
(lp17
(lp18
F0.019999999999999997
aF0.019999999999999997
aF0.8
aF0.019999999999999997
aF0.019999999999999997
aF0.019999999999999997
aF0.019999999999999997
aF0.019999999999999997
aF0.019999999999999997
aF0.019999999999999997
aF0.019999999999999997
aag18
ag18
ag18
ag18
ag18
ag18
ag18
ag18
ag18
ag18
asa(dp19
g2
I5
sg3
F0.9
sg4
I5
sg5
I10
sg6
F0.1
sg7
Nsg8
Nsg9
I10
sg10
(lp20
(lp21
F0.019999999999999997
aF0.019999999999999997
aF0.019999999999999997
aF0.8
aF0.019999999999999997
aF0.019999999999999997
aF0.019999999999999997
aF0.019999999999999997
aF0.019999999999999997
aF0.019999999999999997
aF0.019999999999999997
aag21
ag21
ag21
ag21
ag21
ag21
ag21
ag21
ag21
ag21
asa(dp22
g2
I5
sg3
F0.9
sg4
I5
sg5
I10
sg6
F0.1
sg7
Nsg8
Nsg9
I10
sg10
(lp23
(lp24
F0.019999999999999997
aF0.019999999999999997
aF0.019999999999999997
aF0.019999999999999997
aF0.8
aF0.019999999999999997
aF0.019999999999999997
aF0.019999999999999997
aF0.019999999999999997
aF0.019999999999999997
aF0.019999999999999997
aag24
ag24
ag24
ag24
ag24
ag24
ag24
ag24
ag24
ag24
asa(dp25
g2
I5
sg3
F0.9
sg4
I5
sg5
I10
sg6
F0.1
sg7
Nsg8
Nsg9
I10
sg10
(lp26
(lp27
F0.019999999999999997
aF0.019999999999999997
aF0.019999999999999997
aF0.019999999999999997
aF0.019999999999999997
aF0.8
aF0.019999999999999997
aF0.019999999999999997
aF0.019999999999999997
aF0.019999999999999997
aF0.019999999999999997
aag27
ag27
ag27
ag27
ag27
ag27
ag27
ag27
ag27
ag27
asa(dp28
g2
I5
sg3
F0.9
sg4
I5
sg5
I10
sg6
F0.1
sg7
Nsg8
Nsg9
I10
sg10
(lp29
(lp30
F0.019999999999999997
aF0.019999999999999997
aF0.019999999999999997
aF0.019999999999999997
aF0.019999999999999997
aF0.019999999999999997
aF0.8
aF0.019999999999999997
aF0.019999999999999997
aF0.019999999999999997
aF0.019999999999999997
aag30
ag30
ag30
ag30
ag30
ag30
ag30
ag30
ag30
ag30
asa(dp31
g2
I5
sg3
F0.9
sg4
I5
sg5
I10
sg6
F0.1
sg7
Nsg8
Nsg9
I10
sg10
(lp32
(lp33
F0.019999999999999997
aF0.019999999999999997
aF0.019999999999999997
aF0.019999999999999997
aF0.019999999999999997
aF0.019999999999999997
aF0.019999999999999997
aF0.8
aF0.019999999999999997
aF0.019999999999999997
aF0.019999999999999997
aag33
ag33
ag33
ag33
ag33
ag33
ag33
ag33
ag33
ag33
asa(dp34
g2
I5
sg3
F0.9
sg4
I5
sg5
I10
sg6
F0.1
sg7
Nsg8
Nsg9
I10
sg10
(lp35
(lp36
F0.019999999999999997
aF0.019999999999999997
aF0.019999999999999997
aF0.019999999999999997
aF0.019999999999999997
aF0.019999999999999997
aF0.019999999999999997
aF0.019999999999999997
aF0.8
aF0.019999999999999997
aF0.019999999999999997
aag36
ag36
ag36
ag36
ag36
ag36
ag36
ag36
ag36
ag36
asa(dp37
g2
I5
sg3
F0.9
sg4
I5
sg5
I10
sg6
F0.1
sg7
Nsg8
Nsg9
I10
sg10
(lp38
(lp39
F0.019999999999999997
aF0.019999999999999997
aF0.019999999999999997
aF0.019999999999999997
aF0.019999999999999997
aF0.019999999999999997
aF0.019999999999999997
aF0.019999999999999997
aF0.019999999999999997
aF0.8
aF0.019999999999999997
aag39
ag39
ag39
ag39
ag39
ag39
ag39
ag39
ag39
ag39
asa(dp40
g2
I5
sg3
F0.9
sg4
I5
sg5
I10
sg6
F0.1
sg7
Nsg8
Nsg9
I10
sg10
(lp41
(lp42
F0.019999999999999997
aF0.019999999999999997
aF0.019999999999999997
aF0.019999999999999997
aF0.019999999999999997
aF0.019999999999999997
aF0.019999999999999997
aF0.019999999999999997
aF0.019999999999999997
aF0.019999999999999997
aF0.8
aag42
ag42
ag42
ag42
ag42
ag42
ag42
ag42
ag42
ag42
asa.